Microsoft (R) Macro Assembler Version 6.11		    05/24/22 15:38:14
tempfile.asm						     Page 1 - 1


				assume cs:code,ds:data,ss:stack,es:extended

 0000				extended segment
 0000  0400 [				db 1024 dup (0)
        00
       ]
 0400				extended ends

 0000				stack segment
 0000  0400 [				db 1024 dup (0)
        00
       ]
 0400				stack ends

 0000				data segment

 0000  0100 [				t_buff_p db 256 dup (24h)
        24
       ]
 0100  0100 [				t_buff_s db 256 dup (0)
        00
       ]
 0200 59 6F 75 72 20 6F			OUTPUT db "Your output is:",'$'
       75 74 70 75 74 20
       69 73 3A 24
 0210 00			a db 0
 0211 00			N db 0
 0212 00			M db 0
 0213 00			result db 0
 0214 00			temp2 db 0
 0215				data ends


 0000				code segment
 0000  B8 ---- R		start:mov ax,extended
 0003  8E C0				mov es,ax
 0005  B8 ---- R			mov ax,stack
 0008  8E D0				mov ss,ax
 000A  BC 0400				mov sp,1024
 000D  8B EC				mov bp,sp
 000F  B8 ---- R			mov ax,data
 0012  8E D8				mov ds,ax



 0014				p3:
 0014  B0 0A			MOV AL,10
 0016  A2 0211 R		MOV N, AL
 0019				p4:
 0019  B0 14			MOV AL,20
 001B  A2 0212 R		MOV M, AL
 001E				p5:
 001E  A0 0212 R		MOV AL,M
 0021  8A 1E 0211 R		MOV BL,N
 0025  38 D8			CMP AL,BL
 0027  77 05			JA _GE
 0029  EA ---- 003E R		JMP far ptr p9
 002E  EA ---- 0033 R		_GE:JMP far ptr p7
 0033				p7:
 0033  A0 0212 R		MOV AL,M
 0036  A2 0213 R		MOV result, AL
 0039				p8:
 0039  EA ---- 0044 R		JMP far ptr p10
 003E				p9:
 003E  A0 0211 R		MOV AL,N
 0041  A2 0213 R		MOV result, AL
 0044				p10:
 0044  A0 0213 R		MOV AL,result
 0047  04 28			ADD AL,40
 0049  A2 0214 R		MOV temp2,AL
 004C				p11:
 004C  A0 0214 R		MOV AL,temp2
 004F  A2 0210 R		MOV a, AL
 0052  B8 ---- R		p12:MOV AX,DATA
 0055  8E D8			MOV DS,AX
 0057  8D 16 0200 R		LEA DX,OUTPUT
 005B  B4 09			MOV AH,09H
 005D  CD 21			INT 21H
 005F  A0 0213 R		MOV al,result
 0062  B3 0A			MOV bl,10
 0064  38 D8			CMP al,bl
 0066  77 05			JA _C0
 0068  EA ---- 0072 R		JMP far ptr pcase1
 006D  EA ---- 008A R		_C0:JMP far ptr pcase2
 0072  80 06 0213 R 30		pcase1:ADD result,30H
 0077  8A 16 0213 R		MOV DL,result
 007B  B4 02			MOV AH,2
 007D  CD 21			INT 21H
 007F  B2 0A			MOV DL,0aH
 0081  B4 02			MOV AH,02H
 0083  CD 21			INT 21H
 0085  EA ---- 00B0 R		JMP far ptr p13

 008A  B8 0000			pcase2:mov ax,0
 008D  02 06 0213 R		ADD AL,result
 0091  B3 0A			MOV BL,10
 0093  F6 F3			DIV BL
 0095  8B D0			MOV DX,AX
 0097  81 C2 3030		ADD DX,3030h
 009B  B4 02			MOV AH,2
 009D  CD 21			INT 21H
 009F  8A D6			MOV DL,DH
 00A1  B4 02			MOV aH,2
 00A3  CD 21			INT 21H
 00A5  B2 0A			MOV DL,0aH
 00A7  B4 02			MOV AH,02H
 00A9  CD 21			INT 21H
 00AB  EA ---- 00B0 R		JMP far ptr p13

 00B0  B8 ---- R		p13:MOV AX,DATA
 00B3  8E D8			MOV DS,AX
 00B5  8D 16 0200 R		LEA DX,OUTPUT
 00B9  B4 09			MOV AH,09H
 00BB  CD 21			INT 21H
 00BD  A0 0210 R		MOV al,a
 00C0  B3 0A			MOV bl,10
 00C2  38 D8			CMP al,bl
 00C4  77 05			JA _C1
 00C6  EA ---- 00D0 R		JMP far ptr pcase3
 00CB  EA ---- 00E8 R		_C1:JMP far ptr pcase4
 00D0  80 06 0210 R 30		pcase3:ADD a,30H
 00D5  8A 16 0210 R		MOV DL,a
 00D9  B4 02			MOV AH,2
 00DB  CD 21			INT 21H
 00DD  B2 0A			MOV DL,0aH
 00DF  B4 02			MOV AH,02H
 00E1  CD 21			INT 21H
 00E3  EA ---- 010E R		JMP far ptr quit

 00E8  B8 0000			pcase4:mov ax,0
 00EB  02 06 0210 R		ADD AL,a
 00EF  B3 0A			MOV BL,10
 00F1  F6 F3			DIV BL
 00F3  8B D0			MOV DX,AX
 00F5  81 C2 3030		ADD DX,3030h
 00F9  B4 02			MOV AH,2
 00FB  CD 21			INT 21H
 00FD  8A D6			MOV DL,DH
 00FF  B4 02			MOV aH,2
 0101  CD 21			INT 21H
 0103  B2 0A			MOV DL,0aH
 0105  B4 02			MOV AH,02H
 0107  CD 21			INT 21H
 0109  EA ---- 010E R		JMP far ptr quit

 010E				quit:
 010E  B4 4C			mov ah,4ch
 0110  CD 21			INT 21H
 0112				code ends
				end start


Microsoft (R) Macro Assembler Version 6.11		    05/24/22 15:38:14
tempfile.asm						     Symbols 2 - 1




Segments and Groups:

                N a m e                 Size     Length   Align   Combine Class

code . . . . . . . . . . . . . .	16 Bit	 0112	  Para	  Private 
data . . . . . . . . . . . . . .	16 Bit	 0215	  Para	  Private 
extended . . . . . . . . . . . .	16 Bit	 0400	  Para	  Private 
stack  . . . . . . . . . . . . .	16 Bit	 0400	  Para	  Private 


Symbols:

                N a m e                 Type     Value    Attr

M  . . . . . . . . . . . . . . .	Byte	 0212	  data	
N  . . . . . . . . . . . . . . .	Byte	 0211	  data	
OUTPUT . . . . . . . . . . . . .	Byte	 0200	  data	
_C0  . . . . . . . . . . . . . .	L Near	 006D	  code	
_C1  . . . . . . . . . . . . . .	L Near	 00CB	  code	
_GE  . . . . . . . . . . . . . .	L Near	 002E	  code	
a  . . . . . . . . . . . . . . .	Byte	 0210	  data	
p10  . . . . . . . . . . . . . .	L Near	 0044	  code	
p11  . . . . . . . . . . . . . .	L Near	 004C	  code	
p12  . . . . . . . . . . . . . .	L Near	 0052	  code	
p13  . . . . . . . . . . . . . .	L Near	 00B0	  code	
p3 . . . . . . . . . . . . . . .	L Near	 0014	  code	
p4 . . . . . . . . . . . . . . .	L Near	 0019	  code	
p5 . . . . . . . . . . . . . . .	L Near	 001E	  code	
p7 . . . . . . . . . . . . . . .	L Near	 0033	  code	
p8 . . . . . . . . . . . . . . .	L Near	 0039	  code	
p9 . . . . . . . . . . . . . . .	L Near	 003E	  code	
pcase1 . . . . . . . . . . . . .	L Near	 0072	  code	
pcase2 . . . . . . . . . . . . .	L Near	 008A	  code	
pcase3 . . . . . . . . . . . . .	L Near	 00D0	  code	
pcase4 . . . . . . . . . . . . .	L Near	 00E8	  code	
quit . . . . . . . . . . . . . .	L Near	 010E	  code	
result . . . . . . . . . . . . .	Byte	 0213	  data	
start  . . . . . . . . . . . . .	L Near	 0000	  code	
t_buff_p . . . . . . . . . . . .	Byte	 0000	  data	
t_buff_s . . . . . . . . . . . .	Byte	 0100	  data	
temp2  . . . . . . . . . . . . .	Byte	 0214	  data	

	   0 Warnings
	   0 Errors
